target datalayout = "e-m:e-p270:32:32-p271:32:32-p272:64:64-i64:64-i128:128-f80:128-n8:16:32:64-S128"
target triple = "x86_64-pc-linux-gnu"

%struct.If_Man_t_ = type { ptr, ptr, ptr, ptr, ptr, ptr, ptr, ptr, [5 x i32], i32, float, float, float, float, i32, float, i32, i32, [4 x ptr], ptr, i32, i32, i32, ptr, [3 x [32 x i32]], i32, i32, i32, ptr, ptr, ptr, ptr, ptr, ptr, ptr, i32, i32, i32, [16 x i32], i32, i32, i32, i32, ptr, ptr, ptr, ptr, ptr, i32, i32, [32 x i32], [32 x i32], i32, i32, i32, i32, ptr, [16 x ptr], [16 x ptr], [16 x ptr], [16 x ptr], [16 x ptr], [16 x ptr], [16 x ptr], ptr, ptr, ptr, ptr, [32 x i8], i32, i32, i32, [6 x i64], [2 x i32], [2 x i32], ptr, [15 x i32], ptr, ptr, ptr, [16 x i32], ptr, ptr, ptr, ptr, [2 x i32], [2 x i32], [2 x ptr], ptr }
%struct.If_Hte_t_ = type { ptr, i32, i32, [1 x i64] }

@.str.3 = private unnamed_addr constant [7 x i8] c"%d=%d \00", align 1

; Function Attrs: nounwind uwtable
define void @If_CluHashPrintStats(ptr noundef %0, i32 noundef %1) #0 {
  %3 = alloca ptr, align 8
  %4 = alloca i32, align 4
  %5 = alloca ptr, align 8
  %6 = alloca i32, align 4
  %7 = alloca i32, align 4
  store ptr %0, ptr %3, align 8, !tbaa !10
  store i32 %1, ptr %4, align 4, !tbaa !3
  call void @llvm.lifetime.start.p0(i64 8, ptr %5) #11
  call void @llvm.lifetime.start.p0(i64 4, ptr %6) #11
  call void @llvm.lifetime.start.p0(i64 4, ptr %7) #11
  store i32 0, ptr %6, align 4, !tbaa !3
  br label %8

8:                                                ; preds = %50, %2
  %9 = load i32, ptr %6, align 4, !tbaa !3
  %10 = load ptr, ptr %3, align 8, !tbaa !10
  %11 = getelementptr inbounds nuw %struct.If_Man_t_, ptr %10, i32 0, i32 85
  %12 = load i32, ptr %4, align 4, !tbaa !3
  %13 = sext i32 %12 to i64
  %14 = getelementptr inbounds [2 x i32], ptr %11, i64 0, i64 %13
  %15 = load i32, ptr %14, align 4, !tbaa !3
  %16 = icmp slt i32 %9, %15
  br i1 %16, label %17, label %53

17:                                               ; preds = %8
  store i32 0, ptr %7, align 4, !tbaa !3
  %18 = load ptr, ptr %3, align 8, !tbaa !10
  %19 = getelementptr inbounds nuw %struct.If_Man_t_, ptr %18, i32 0, i32 87
  %20 = load i32, ptr %4, align 4, !tbaa !3
  %21 = sext i32 %20 to i64
  %22 = getelementptr inbounds [2 x ptr], ptr %19, i64 0, i64 %21
  %23 = load ptr, ptr %22, align 8, !tbaa !13
  %24 = load i32, ptr %6, align 4, !tbaa !3
  %25 = sext i32 %24 to i64
  %26 = getelementptr inbounds ptr, ptr %23, i64 %25
  %27 = load ptr, ptr %26, align 8, !tbaa !14
  store ptr %27, ptr %5, align 8, !tbaa !14
  br label %28

28:                                               ; preds = %34, %17
  %29 = load ptr, ptr %5, align 8, !tbaa !14
  %30 = icmp ne ptr %29, null
  br i1 %30, label %31, label %38

31:                                               ; preds = %28
  %32 = load i32, ptr %7, align 4, !tbaa !3
  %33 = add nsw i32 %32, 1
  store i32 %33, ptr %7, align 4, !tbaa !3
  br label %34

34:                                               ; preds = %31
  %35 = load ptr, ptr %5, align 8, !tbaa !14
  %36 = getelementptr inbounds nuw %struct.If_Hte_t_, ptr %35, i32 0, i32 0
  %37 = load ptr, ptr %36, align 8, !tbaa !18
  store ptr %37, ptr %5, align 8, !tbaa !14
  br label %28, !llvm.loop !53

38:                                               ; preds = %28
  %39 = load i32, ptr %7, align 4, !tbaa !3
  %40 = icmp eq i32 %39, 0
  br i1 %40, label %41, label %42

41:                                               ; preds = %38
  br label %50

42:                                               ; preds = %38
  %43 = load i32, ptr %7, align 4, !tbaa !3
  %44 = icmp slt i32 %43, 10
  br i1 %44, label %45, label %46

45:                                               ; preds = %42
  br label %50

46:                                               ; preds = %42
  %47 = load i32, ptr %6, align 4, !tbaa !3
  %48 = load i32, ptr %7, align 4, !tbaa !3
  %49 = call i32 (ptr, ...) @printf(ptr noundef @.str.3, i32 noundef %47, i32 noundef %48)
  br label %50

50:                                               ; preds = %46, %45, %41
  %51 = load i32, ptr %6, align 4, !tbaa !3
  %52 = add nsw i32 %51, 1
  store i32 %52, ptr %6, align 4, !tbaa !3
  br label %8, !llvm.loop !54

53:                                               ; preds = %8
  call void @llvm.lifetime.end.p0(i64 4, ptr %7) #11
  call void @llvm.lifetime.end.p0(i64 4, ptr %6) #11
  call void @llvm.lifetime.end.p0(i64 8, ptr %5) #11
  ret void
}