; Function Attrs: nofree nounwind uwtable
define void @If_CluHashPrintStats(ptr noundef readonly captures(none) %0, i32 noundef %1) local_unnamed_addr #6 {
  %3 = getelementptr inbounds nuw i8, ptr %0, i64 2296
  %4 = sext i32 %1 to i64
  %5 = getelementptr inbounds [2 x i32], ptr %3, i64 0, i64 %4
  %6 = load i32, ptr %5, align 4, !tbaa !6
  %7 = icmp sgt i32 %6, 0
  br i1 %7, label %.lr.ph, label %._crit_edge

.lr.ph:                                           ; preds = %2
  %8 = getelementptr inbounds nuw i8, ptr %0, i64 2312
  %9 = getelementptr inbounds [2 x ptr], ptr %8, i64 0, i64 %4
  br label %10

10:                                               ; preds = %.lr.ph, %21
  %11 = phi i32 [ %6, %.lr.ph ], [ %22, %21 ]
  %indvars.iv = phi i64 [ 0, %.lr.ph ], [ %indvars.iv.next, %21 ]
  %12 = load ptr, ptr %9, align 8, !tbaa !10
  %13 = getelementptr inbounds nuw ptr, ptr %12, i64 %indvars.iv
  br label %14

14:                                               ; preds = %14, %10
  %.015.in = phi ptr [ %13, %10 ], [ %.015, %14 ]
  %.0 = phi i32 [ 0, %10 ], [ %15, %14 ]
  %.015 = load ptr, ptr %.015.in, align 8, !tbaa !12
  %.not = icmp eq ptr %.015, null
  %15 = add nuw nsw i32 %.0, 1
  br i1 %.not, label %16, label %14, !llvm.loop !60

16:                                               ; preds = %14
  %17 = icmp samesign ult i32 %.0, 10
  br i1 %17, label %21, label %18

18:                                               ; preds = %16
  %19 = trunc nuw nsw i64 %indvars.iv to i32
  %20 = tail call i32 (ptr, ...) @printf(ptr noundef nonnull dereferenceable(1) @.str.3, i32 noundef %19, i32 noundef %.0)
  %.pre = load i32, ptr %5, align 4, !tbaa !6
  br label %21

21:                                               ; preds = %16, %18
  %22 = phi i32 [ %11, %16 ], [ %.pre, %18 ]
  %indvars.iv.next = add nuw nsw i64 %indvars.iv, 1
  %23 = sext i32 %22 to i64
  %24 = icmp slt i64 %indvars.iv.next, %23
  br i1 %24, label %10, label %._crit_edge, !llvm.loop !61

._crit_edge:                                      ; preds = %21, %2
  ret void
}